target datalayout = "e-m:e-p270:32:32-p271:32:32-p272:64:64-i64:64-i128:128-f80:128-n8:16:32:64-S128"
target triple = "x86_64-pc-linux-gnu"

%"class.benchmark::ConsoleReporter" = type <{ %"class.benchmark::BenchmarkReporter", i32, [4 x i8], i64, %"class.std::map", i8, [7 x i8] }>
%"class.benchmark::BenchmarkReporter" = type { ptr, ptr, ptr }
%"class.std::map" = type { %"class.std::_Rb_tree" }
%"class.std::_Rb_tree" = type { %"struct.std::_Rb_tree<std::__cxx11::basic_string<char>, std::pair<const std::__cxx11::basic_string<char>, benchmark::Counter>, std::_Select1st<std::pair<const std::__cxx11::basic_string<char>, benchmark::Counter>>, std::less<std::__cxx11::basic_string<char>>>::_Rb_tree_impl" }
%"struct.std::_Rb_tree<std::__cxx11::basic_string<char>, std::pair<const std::__cxx11::basic_string<char>, benchmark::Counter>, std::_Select1st<std::pair<const std::__cxx11::basic_string<char>, benchmark::Counter>>, std::less<std::__cxx11::basic_string<char>>>::_Rb_tree_impl" = type { [8 x i8], %"struct.std::_Rb_tree_header" }
%"struct.std::_Rb_tree_header" = type { %"struct.std::_Rb_tree_node_base", i64 }
%"struct.std::_Rb_tree_node_base" = type { i32, ptr, ptr, ptr }
%"class.std::__cxx11::basic_string" = type { %"struct.std::__cxx11::basic_string<char>::_Alloc_hider", i64, %union.anon }
%"struct.std::__cxx11::basic_string<char>::_Alloc_hider" = type { ptr }
%union.anon = type { i64, [8 x i8] }
%"struct.benchmark::BenchmarkReporter::Run" = type { %"struct.benchmark::BenchmarkName", i64, i64, i32, %"class.std::__cxx11::basic_string", i32, %"class.std::__cxx11::basic_string", i32, %"class.std::__cxx11::basic_string", i64, i64, i64, i64, i32, double, double, double, i8, i32, ptr, i64, ptr, i8, i8, %"class.std::map", ptr, double }
%"struct.benchmark::BenchmarkName" = type { %"class.std::__cxx11::basic_string", %"class.std::__cxx11::basic_string", %"class.std::__cxx11::basic_string", %"class.std::__cxx11::basic_string", %"class.std::__cxx11::basic_string", %"class.std::__cxx11::basic_string", %"class.std::__cxx11::basic_string", %"class.std::__cxx11::basic_string" }
%"class.__gnu_cxx::__normal_iterator" = type { ptr }
%"struct.std::_Vector_base" = type { %"struct.std::_Vector_base<benchmark::BenchmarkReporter::Run, std::allocator<benchmark::BenchmarkReporter::Run>>::_Vector_impl" }
%"struct.std::_Vector_base<benchmark::BenchmarkReporter::Run, std::allocator<benchmark::BenchmarkReporter::Run>>::_Vector_impl" = type { %"struct.std::_Vector_base<benchmark::BenchmarkReporter::Run, std::allocator<benchmark::BenchmarkReporter::Run>>::_Vector_impl_data" }
%"struct.std::_Vector_base<benchmark::BenchmarkReporter::Run, std::allocator<benchmark::BenchmarkReporter::Run>>::_Vector_impl_data" = type { ptr, ptr, ptr }

; Function Attrs: mustprogress nounwind uwtable
define linkonce_odr hidden noundef nonnull align 8 dereferenceable(8) ptr @_ZNK9__gnu_cxx17__normal_iteratorIPKN9benchmark17BenchmarkReporter3RunESt6vectorIS3_SaIS3_EEE4baseEv(ptr noundef nonnull align 8 dereferenceable(8) %0) #5 comdat align 2 {
  %2 = alloca ptr, align 8
  store ptr %0, ptr %2, align 8, !tbaa !69
  %3 = load ptr, ptr %2, align 8
  %4 = getelementptr inbounds nuw %"class.__gnu_cxx::__normal_iterator", ptr %3, i32 0, i32 0
  ret ptr %4
}

; Function Attrs: mustprogress nounwind uwtable
define linkonce_odr hidden void @_ZN9__gnu_cxx17__normal_iteratorIPKN9benchmark17BenchmarkReporter3RunESt6vectorIS3_SaIS3_EEEC2ERKS5_(ptr noundef nonnull align 8 dereferenceable(8) %0, ptr noundef nonnull align 8 dereferenceable(8) %1) unnamed_addr #5 comdat align 2 {
  %3 = alloca ptr, align 8
  %4 = alloca ptr, align 8
  store ptr %0, ptr %3, align 8, !tbaa !69
  store ptr %1, ptr %4, align 8, !tbaa !165
  %5 = load ptr, ptr %3, align 8
  %6 = getelementptr inbounds nuw %"class.__gnu_cxx::__normal_iterator", ptr %5, i32 0, i32 0
  %7 = load ptr, ptr %4, align 8, !tbaa !165
  %8 = load ptr, ptr %7, align 8, !tbaa !38
  store ptr %8, ptr %6, align 8, !tbaa !71
  ret void
}

; Function Attrs: mustprogress nounwind uwtable
define linkonce_odr hidden noundef nonnull align 8 dereferenceable(8) ptr @_ZN9__gnu_cxx17__normal_iteratorIPKN9benchmark17BenchmarkReporter3RunESt6vectorIS3_SaIS3_EEEppEv(ptr noundef nonnull align 8 dereferenceable(8) %0) #5 comdat align 2 {
  %2 = alloca ptr, align 8
  store ptr %0, ptr %2, align 8, !tbaa !69
  %3 = load ptr, ptr %2, align 8
  %4 = getelementptr inbounds nuw %"class.__gnu_cxx::__normal_iterator", ptr %3, i32 0, i32 0
  %5 = load ptr, ptr %4, align 8, !tbaa !71
  %6 = getelementptr inbounds nuw %"struct.benchmark::BenchmarkReporter::Run", ptr %5, i32 1
  store ptr %6, ptr %4, align 8, !tbaa !71
  ret ptr %3
}

; Function Attrs: mustprogress uwtable
define linkonce_odr hidden noundef nonnull align 8 dereferenceable(48) ptr @_ZNSt3mapINSt7__cxx1112basic_stringIcSt11char_traitsIcESaIcEEEN9benchmark7CounterESt4lessIS5_ESaISt4pairIKS5_S7_EEEaSERKSE_(ptr noundef nonnull align 8 dereferenceable(48) %0, ptr noundef nonnull align 8 dereferenceable(48) %1) #4 comdat align 2 {
  %3 = alloca ptr, align 8
  %4 = alloca ptr, align 8
  store ptr %0, ptr %3, align 8, !tbaa !33
  store ptr %1, ptr %4, align 8, !tbaa !33
  %5 = load ptr, ptr %3, align 8
  %6 = getelementptr inbounds nuw %"class.std::map", ptr %5, i32 0, i32 0
  %7 = load ptr, ptr %4, align 8, !tbaa !33
  %8 = getelementptr inbounds nuw %"class.std::map", ptr %7, i32 0, i32 0
  %9 = call noundef nonnull align 8 dereferenceable(48) ptr @_ZNSt8_Rb_treeINSt7__cxx1112basic_stringIcSt11char_traitsIcESaIcEEESt4pairIKS5_N9benchmark7CounterEESt10_Select1stISA_ESt4lessIS5_ESaISA_EEaSERKSG_(ptr noundef nonnull align 8 dereferenceable(48) %6, ptr noundef nonnull align 8 dereferenceable(48) %8)
  ret ptr %5
}

; Function Attrs: mustprogress nounwind uwtable
define linkonce_odr hidden noundef nonnull align 8 dereferenceable(560) ptr @_ZNK9__gnu_cxx17__normal_iteratorIPKN9benchmark17BenchmarkReporter3RunESt6vectorIS3_SaIS3_EEEdeEv(ptr noundef nonnull align 8 dereferenceable(8) %0) #5 comdat align 2 {
  %2 = alloca ptr, align 8
  store ptr %0, ptr %2, align 8, !tbaa !69
  %3 = load ptr, ptr %2, align 8
  %4 = getelementptr inbounds nuw %"class.__gnu_cxx::__normal_iterator", ptr %3, i32 0, i32 0
  %5 = load ptr, ptr %4, align 8, !tbaa !71
  ret ptr %5
}

; Function Attrs: inlinehint mustprogress nounwind uwtable
define linkonce_odr noundef zeroext i1 @_ZN9__gnu_cxxneIPKN9benchmark17BenchmarkReporter3RunESt6vectorIS3_SaIS3_EEEEbRKNS_17__normal_iteratorIT_T0_EESE_(ptr noundef nonnull align 8 dereferenceable(8) %0, ptr noundef nonnull align 8 dereferenceable(8) %1) #8 comdat {
  %3 = alloca ptr, align 8
  %4 = alloca ptr, align 8
  store ptr %0, ptr %3, align 8, !tbaa !69
  store ptr %1, ptr %4, align 8, !tbaa !69
  %5 = load ptr, ptr %3, align 8, !tbaa !69
  %6 = call noundef nonnull align 8 dereferenceable(8) ptr @_ZNK9__gnu_cxx17__normal_iteratorIPKN9benchmark17BenchmarkReporter3RunESt6vectorIS3_SaIS3_EEE4baseEv(ptr noundef nonnull align 8 dereferenceable(8) %5) #3
  %7 = load ptr, ptr %6, align 8, !tbaa !38
  %8 = load ptr, ptr %4, align 8, !tbaa !69
  %9 = call noundef nonnull align 8 dereferenceable(8) ptr @_ZNK9__gnu_cxx17__normal_iteratorIPKN9benchmark17BenchmarkReporter3RunESt6vectorIS3_SaIS3_EEE4baseEv(ptr noundef nonnull align 8 dereferenceable(8) %8) #3
  %10 = load ptr, ptr %9, align 8, !tbaa !38
  %11 = icmp ne ptr %7, %10
  ret i1 %11
}

; Function Attrs: mustprogress nounwind uwtable
define linkonce_odr hidden ptr @_ZNKSt6vectorIN9benchmark17BenchmarkReporter3RunESaIS2_EE3endEv(ptr noundef nonnull align 8 dereferenceable(24) %0) #5 comdat align 2 {
  %2 = alloca %"class.__gnu_cxx::__normal_iterator", align 8
  %3 = alloca ptr, align 8
  store ptr %0, ptr %3, align 8, !tbaa !64
  %4 = load ptr, ptr %3, align 8
  %5 = getelementptr inbounds nuw %"struct.std::_Vector_base", ptr %4, i32 0, i32 0
  %6 = getelementptr inbounds nuw %"struct.std::_Vector_base<benchmark::BenchmarkReporter::Run, std::allocator<benchmark::BenchmarkReporter::Run>>::_Vector_impl_data", ptr %5, i32 0, i32 1
  call void @_ZN9__gnu_cxx17__normal_iteratorIPKN9benchmark17BenchmarkReporter3RunESt6vectorIS3_SaIS3_EEEC2ERKS5_(ptr noundef nonnull align 8 dereferenceable(8) %2, ptr noundef nonnull align 8 dereferenceable(8) %6) #3
  %7 = getelementptr inbounds nuw %"class.__gnu_cxx::__normal_iterator", ptr %2, i32 0, i32 0
  %8 = load ptr, ptr %7, align 8
  ret ptr %8
}

; Function Attrs: mustprogress nounwind uwtable
define linkonce_odr hidden ptr @_ZNKSt6vectorIN9benchmark17BenchmarkReporter3RunESaIS2_EE5beginEv(ptr noundef nonnull align 8 dereferenceable(24) %0) #5 comdat align 2 {
  %2 = alloca %"class.__gnu_cxx::__normal_iterator", align 8
  %3 = alloca ptr, align 8
  store ptr %0, ptr %3, align 8, !tbaa !64
  %4 = load ptr, ptr %3, align 8
  %5 = getelementptr inbounds nuw %"struct.std::_Vector_base", ptr %4, i32 0, i32 0
  %6 = getelementptr inbounds nuw %"struct.std::_Vector_base<benchmark::BenchmarkReporter::Run, std::allocator<benchmark::BenchmarkReporter::Run>>::_Vector_impl_data", ptr %5, i32 0, i32 0
  call void @_ZN9__gnu_cxx17__normal_iteratorIPKN9benchmark17BenchmarkReporter3RunESt6vectorIS3_SaIS3_EEEC2ERKS5_(ptr noundef nonnull align 8 dereferenceable(8) %2, ptr noundef nonnull align 8 dereferenceable(8) %6) #3
  %7 = getelementptr inbounds nuw %"class.__gnu_cxx::__normal_iterator", ptr %2, i32 0, i32 0
  %8 = load ptr, ptr %7, align 8
  ret ptr %8
}

; Function Attrs: mustprogress uwtable
define void @_ZN9benchmark15ConsoleReporter10ReportRunsERKSt6vectorINS_17BenchmarkReporter3RunESaIS3_EE(ptr noundef nonnull align 8 dereferenceable(89) %0, ptr noundef nonnull align 8 dereferenceable(24) %1) unnamed_addr #4 align 2 {
  %3 = alloca ptr, align 8
  %4 = alloca ptr, align 8
  %5 = alloca ptr, align 8
  %6 = alloca %"class.__gnu_cxx::__normal_iterator", align 8
  %7 = alloca %"class.__gnu_cxx::__normal_iterator", align 8
  %8 = alloca ptr, align 8
  %9 = alloca i8, align 1
  store ptr %0, ptr %3, align 8, !tbaa !7
  store ptr %1, ptr %4, align 8, !tbaa !64
  %10 = load ptr, ptr %3, align 8
  call void @llvm.lifetime.start.p0(i64 8, ptr %5) #3
  %11 = load ptr, ptr %4, align 8, !tbaa !64
  store ptr %11, ptr %5, align 8, !tbaa !64
  call void @llvm.lifetime.start.p0(i64 8, ptr %6) #3
  %12 = load ptr, ptr %5, align 8, !tbaa !64
  %13 = call ptr @_ZNKSt6vectorIN9benchmark17BenchmarkReporter3RunESaIS2_EE5beginEv(ptr noundef nonnull align 8 dereferenceable(24) %12) #3
  %14 = getelementptr inbounds nuw %"class.__gnu_cxx::__normal_iterator", ptr %6, i32 0, i32 0
  store ptr %13, ptr %14, align 8
  call void @llvm.lifetime.start.p0(i64 8, ptr %7) #3
  %15 = load ptr, ptr %5, align 8, !tbaa !64
  %16 = call ptr @_ZNKSt6vectorIN9benchmark17BenchmarkReporter3RunESaIS2_EE3endEv(ptr noundef nonnull align 8 dereferenceable(24) %15) #3
  %17 = getelementptr inbounds nuw %"class.__gnu_cxx::__normal_iterator", ptr %7, i32 0, i32 0
  store ptr %16, ptr %17, align 8
  br label %18

18:                                               ; preds = %64, %2
  %19 = call noundef zeroext i1 @_ZN9__gnu_cxxneIPKN9benchmark17BenchmarkReporter3RunESt6vectorIS3_SaIS3_EEEEbRKNS_17__normal_iteratorIT_T0_EESE_(ptr noundef nonnull align 8 dereferenceable(8) %6, ptr noundef nonnull align 8 dereferenceable(8) %7) #3
  br i1 %19, label %21, label %20

20:                                               ; preds = %18
  call void @llvm.lifetime.end.p0(i64 8, ptr %7) #3
  call void @llvm.lifetime.end.p0(i64 8, ptr %6) #3
  call void @llvm.lifetime.end.p0(i64 8, ptr %5) #3
  br label %66

21:                                               ; preds = %18
  call void @llvm.lifetime.start.p0(i64 8, ptr %8) #3
  %22 = call noundef nonnull align 8 dereferenceable(560) ptr @_ZNK9__gnu_cxx17__normal_iteratorIPKN9benchmark17BenchmarkReporter3RunESt6vectorIS3_SaIS3_EEEdeEv(ptr noundef nonnull align 8 dereferenceable(8) %6) #3
  store ptr %22, ptr %8, align 8, !tbaa !38
  call void @llvm.lifetime.start.p0(i64 1, ptr %9) #3
  %23 = getelementptr inbounds nuw %"class.benchmark::ConsoleReporter", ptr %10, i32 0, i32 5
  %24 = load i8, ptr %23, align 8, !tbaa !32, !range !66, !noundef !67
  %25 = trunc i8 %24 to i1
  %26 = xor i1 %25, true
  %27 = zext i1 %26 to i8
  store i8 %27, ptr %9, align 1, !tbaa !68
  %28 = getelementptr inbounds nuw %"class.benchmark::ConsoleReporter", ptr %10, i32 0, i32 1
  %29 = load i32, ptr %28, align 8, !tbaa !40
  %30 = and i32 %29, 2
  %31 = icmp ne i32 %30, 0
  br i1 %31, label %32, label %38

32:                                               ; preds = %21
  %33 = load ptr, ptr %8, align 8, !tbaa !38
  %34 = getelementptr inbounds nuw %"struct.benchmark::BenchmarkReporter::Run", ptr %33, i32 0, i32 24
  %35 = getelementptr inbounds nuw %"class.benchmark::ConsoleReporter", ptr %10, i32 0, i32 4
  %36 = call noundef zeroext i1 @_ZN9benchmark8internal9SameNamesERKSt3mapINSt7__cxx1112basic_stringIcSt11char_traitsIcESaIcEEENS_7CounterESt4lessIS7_ESaISt4pairIKS7_S8_EEESH_(ptr noundef nonnull align 8 dereferenceable(48) %34, ptr noundef nonnull align 8 dereferenceable(48) %35)
  %37 = xor i1 %36, true
  br label %38

38:                                               ; preds = %32, %21
  %39 = phi i1 [ false, %21 ], [ %37, %32 ]
  %40 = zext i1 %39 to i32
  %41 = load i8, ptr %9, align 1, !tbaa !68, !range !66, !noundef !67
  %42 = trunc i8 %41 to i1
  %43 = zext i1 %42 to i32
  %44 = or i32 %43, %40
  %45 = icmp ne i32 %44, 0
  %46 = zext i1 %45 to i8
  store i8 %46, ptr %9, align 1, !tbaa !68
  %47 = load i8, ptr %9, align 1, !tbaa !68, !range !66, !noundef !67
  %48 = trunc i8 %47 to i1
  br i1 %48, label %49, label %59

49:                                               ; preds = %38
  %50 = getelementptr inbounds nuw %"class.benchmark::ConsoleReporter", ptr %10, i32 0, i32 5
  store i8 1, ptr %50, align 8, !tbaa !32
  %51 = load ptr, ptr %8, align 8, !tbaa !38
  %52 = getelementptr inbounds nuw %"struct.benchmark::BenchmarkReporter::Run", ptr %51, i32 0, i32 24
  %53 = getelementptr inbounds nuw %"class.benchmark::ConsoleReporter", ptr %10, i32 0, i32 4
  %54 = call noundef nonnull align 8 dereferenceable(48) ptr @_ZNSt3mapINSt7__cxx1112basic_stringIcSt11char_traitsIcESaIcEEEN9benchmark7CounterESt4lessIS5_ESaISt4pairIKS5_S7_EEEaSERKSE_(ptr noundef nonnull align 8 dereferenceable(48) %53, ptr noundef nonnull align 8 dereferenceable(48) %52)
  %55 = load ptr, ptr %8, align 8, !tbaa !38
  %56 = load ptr, ptr %10, align 8, !tbaa !61
  %57 = getelementptr inbounds ptr, ptr %56, i64 7
  %58 = load ptr, ptr %57, align 8
  call void %58(ptr noundef nonnull align 8 dereferenceable(89) %10, ptr noundef nonnull align 8 dereferenceable(560) %55)
  br label %59

59:                                               ; preds = %49, %38
  %60 = load ptr, ptr %8, align 8, !tbaa !38
  %61 = load ptr, ptr %10, align 8, !tbaa !61
  %62 = getelementptr inbounds ptr, ptr %61, i64 6
  %63 = load ptr, ptr %62, align 8
  call void %63(ptr noundef nonnull align 8 dereferenceable(89) %10, ptr noundef nonnull align 8 dereferenceable(560) %60)
  call void @llvm.lifetime.end.p0(i64 1, ptr %9) #3
  call void @llvm.lifetime.end.p0(i64 8, ptr %8) #3
  br label %64

64:                                               ; preds = %59
  %65 = call noundef nonnull align 8 dereferenceable(8) ptr @_ZN9__gnu_cxx17__normal_iteratorIPKN9benchmark17BenchmarkReporter3RunESt6vectorIS3_SaIS3_EEEppEv(ptr noundef nonnull align 8 dereferenceable(8) %6) #3
  br label %18

66:                                               ; preds = %20
  ret void
}